; Function Attrs: mustprogress uwtable
define hidden void @_ZN4cvc58internal6theory11quantifiers19TransitionInference7processENS0_12NodeTemplateILb1EEES5_(ptr noundef nonnull align 8 dereferenceable(320) %0, ptr noundef readonly captures(none) %1, ptr noundef readonly captures(none) %2) local_unnamed_addr #3 align 2 personality ptr @__gxx_personality_v0 {
  %4 = alloca %"class.cvc5::internal::NodeTemplate", align 8
  %5 = getelementptr inbounds nuw i8, ptr %0, i64 16
  %6 = load ptr, ptr %5, align 8, !tbaa !15
  %7 = load ptr, ptr %2, align 8, !tbaa !15
  %.not.i = icmp eq ptr %6, %7
  br i1 %.not.i, label %_ZN4cvc58internal12NodeTemplateILb1EEaSERKS2_.exit, label %8, !prof !39

8:                                                ; preds = %3
  %9 = load i64, ptr %6, align 8
  %10 = and i64 %9, 1152920405095219200
  %.not.i.i = icmp eq i64 %10, 1152920405095219200
  br i1 %.not.i.i, label %_ZN4cvc58internal4expr9NodeValue3decEv.exit.i, label %11, !prof !39

11:                                               ; preds = %8
  %12 = add i64 %9, 1152920405095219200
  %13 = and i64 %12, 1152920405095219200
  %14 = and i64 %9, -1152920405095219201
  %15 = or disjoint i64 %13, %14
  store i64 %15, ptr %6, align 8
  %16 = icmp eq i64 %13, 0
  br i1 %16, label %17, label %_ZN4cvc58internal4expr9NodeValue3decEv.exit.i, !prof !39

17:                                               ; preds = %11
  tail call void @_ZN4cvc58internal4expr9NodeValue15markForDeletionEv(ptr noundef nonnull align 8 dereferenceable(24) %6)
  br label %_ZN4cvc58internal4expr9NodeValue3decEv.exit.i

_ZN4cvc58internal4expr9NodeValue3decEv.exit.i:    ; preds = %17, %11, %8
  %18 = load ptr, ptr %2, align 8, !tbaa !15
  store ptr %18, ptr %5, align 8, !tbaa !15
  %19 = load i64, ptr %18, align 8
  %20 = lshr i64 %19, 40
  %21 = trunc nuw nsw i64 %20 to i32
  %22 = and i32 %21, 1048575
  %23 = icmp samesign ult i32 %22, 1048574
  br i1 %23, label %24, label %29, !prof !38

24:                                               ; preds = %_ZN4cvc58internal4expr9NodeValue3decEv.exit.i
  %25 = add i64 %19, 1099511627776
  %26 = and i64 %25, 1152920405095219200
  %27 = and i64 %19, -1152920405095219201
  %28 = or disjoint i64 %26, %27
  store i64 %28, ptr %18, align 8
  br label %_ZN4cvc58internal12NodeTemplateILb1EEaSERKS2_.exit

29:                                               ; preds = %_ZN4cvc58internal4expr9NodeValue3decEv.exit.i
  %30 = icmp eq i32 %22, 1048574
  br i1 %30, label %31, label %_ZN4cvc58internal12NodeTemplateILb1EEaSERKS2_.exit, !prof !39

31:                                               ; preds = %29
  %32 = or i64 %19, 1152920405095219200
  store i64 %32, ptr %18, align 8
  tail call void @_ZN4cvc58internal4expr9NodeValue20markRefCountMaxedOutEv(ptr noundef nonnull align 8 dereferenceable(24) %18)
  br label %_ZN4cvc58internal12NodeTemplateILb1EEaSERKS2_.exit

_ZN4cvc58internal12NodeTemplateILb1EEaSERKS2_.exit: ; preds = %3, %24, %29, %31
  %33 = load ptr, ptr %1, align 8, !tbaa !15
  store ptr %33, ptr %4, align 8, !tbaa !15
  %34 = load i64, ptr %33, align 8
  %35 = lshr i64 %34, 40
  %36 = trunc nuw nsw i64 %35 to i32
  %37 = and i32 %36, 1048575
  %38 = icmp samesign ult i32 %37, 1048574
  br i1 %38, label %39, label %44, !prof !38

39:                                               ; preds = %_ZN4cvc58internal12NodeTemplateILb1EEaSERKS2_.exit
  %40 = add i64 %34, 1099511627776
  %41 = and i64 %40, 1152920405095219200
  %42 = and i64 %34, -1152920405095219201
  %43 = or disjoint i64 %41, %42
  store i64 %43, ptr %33, align 8
  br label %_ZN4cvc58internal12NodeTemplateILb1EEC2ERKS2_.exit

44:                                               ; preds = %_ZN4cvc58internal12NodeTemplateILb1EEaSERKS2_.exit
  %45 = icmp eq i32 %37, 1048574
  br i1 %45, label %46, label %_ZN4cvc58internal12NodeTemplateILb1EEC2ERKS2_.exit, !prof !39

46:                                               ; preds = %44
  %47 = or i64 %34, 1152920405095219200
  store i64 %47, ptr %33, align 8
  tail call void @_ZN4cvc58internal4expr9NodeValue20markRefCountMaxedOutEv(ptr noundef nonnull align 8 dereferenceable(24) %33)
  br label %_ZN4cvc58internal12NodeTemplateILb1EEC2ERKS2_.exit

_ZN4cvc58internal12NodeTemplateILb1EEC2ERKS2_.exit: ; preds = %39, %44, %46
  invoke void @_ZN4cvc58internal6theory11quantifiers19TransitionInference7processENS0_12NodeTemplateILb1EEE(ptr noundef nonnull align 8 dereferenceable(320) %0, ptr noundef nonnull %4)
          to label %48 unwind label %62

48:                                               ; preds = %_ZN4cvc58internal12NodeTemplateILb1EEC2ERKS2_.exit
  %49 = load ptr, ptr %4, align 8, !tbaa !15
  %50 = load i64, ptr %49, align 8
  %51 = and i64 %50, 1152920405095219200
  %.not.i.i2 = icmp eq i64 %51, 1152920405095219200
  br i1 %.not.i.i2, label %_ZN4cvc58internal12NodeTemplateILb1EED2Ev.exit, label %52, !prof !39

52:                                               ; preds = %48
  %53 = add i64 %50, 1152920405095219200
  %54 = and i64 %53, 1152920405095219200
  %55 = and i64 %50, -1152920405095219201
  %56 = or disjoint i64 %54, %55
  store i64 %56, ptr %49, align 8
  %57 = icmp eq i64 %54, 0
  br i1 %57, label %58, label %_ZN4cvc58internal12NodeTemplateILb1EED2Ev.exit, !prof !39

58:                                               ; preds = %52
  invoke void @_ZN4cvc58internal4expr9NodeValue15markForDeletionEv(ptr noundef nonnull align 8 dereferenceable(24) %49)
          to label %_ZN4cvc58internal12NodeTemplateILb1EED2Ev.exit unwind label %59

59:                                               ; preds = %58
  %60 = landingpad { ptr, i32 }
          catch ptr null
  %61 = extractvalue { ptr, i32 } %60, 0
  call void @__clang_call_terminate(ptr %61) #24
  unreachable

_ZN4cvc58internal12NodeTemplateILb1EED2Ev.exit:   ; preds = %48, %52, %58
  ret void

62:                                               ; preds = %_ZN4cvc58internal12NodeTemplateILb1EEC2ERKS2_.exit
  %63 = landingpad { ptr, i32 }
          cleanup
  call void @_ZN4cvc58internal12NodeTemplateILb1EED2Ev(ptr noundef nonnull align 8 dereferenceable(8) %4) #23
  resume { ptr, i32 } %63
}